; ModuleID = '3/1377.c'
source_filename = "3/1377.c"
target datalayout = "e-m:e-p270:32:32-p271:32:32-p272:64:64-i64:64-f80:128-n8:16:32:64-S128"
target triple = "x86_64-pc-linux-gnu"

@.str = private unnamed_addr constant [5 x i8] c"%d%d\00", align 1
@.str.1 = private unnamed_addr constant [3 x i8] c"%d\00", align 1
@.str.2 = private unnamed_addr constant [4 x i8] c"yes\00", align 1
@.str.3 = private unnamed_addr constant [3 x i8] c"no\00", align 1

; Function Attrs: noinline nounwind uwtable
define dso_local i32 @main() #0 {
  %1 = alloca i32, align 4
  %2 = alloca i32, align 4
  %3 = alloca i32, align 4
  %4 = alloca i32, align 4
  %5 = alloca i32, align 4
  %6 = alloca i32, align 4
  %7 = alloca i32, align 4
  %8 = alloca [10000 x i32], align 16
  store i32 0, i32* %1, align 4
  %9 = call i32 (i8*, ...) @__isoc99_scanf(i8* getelementptr inbounds ([5 x i8], [5 x i8]* @.str, i64 0, i64 0), i32* %2, i32* %5)
  store i32 1, i32* %3, align 4
  br label %10

10:                                               ; preds = %19, %0
  %11 = load i32, i32* %3, align 4
  %12 = load i32, i32* %2, align 4
  %13 = icmp sle i32 %11, %12
  br i1 %13, label %14, label %22

14:                                               ; preds = %10
  %15 = load i32, i32* %3, align 4
  %16 = sext i32 %15 to i64
  %17 = getelementptr inbounds [10000 x i32], [10000 x i32]* %8, i64 0, i64 %16
  %18 = call i32 (i8*, ...) @__isoc99_scanf(i8* getelementptr inbounds ([3 x i8], [3 x i8]* @.str.1, i64 0, i64 0), i32* %17)
  br label %19

19:                                               ; preds = %14
  %20 = load i32, i32* %3, align 4
  %21 = add nsw i32 %20, 1
  store i32 %21, i32* %3, align 4
  br label %10

22:                                               ; preds = %10
  store i32 1, i32* %3, align 4
  br label %23

23:                                               ; preds = %71, %22
  %24 = load i32, i32* %3, align 4
  %25 = load i32, i32* %2, align 4
  %26 = icmp slt i32 %24, %25
  br i1 %26, label %27, label %74

27:                                               ; preds = %23
  %28 = load i32, i32* %3, align 4
  store i32 %28, i32* %6, align 4
  %29 = load i32, i32* %6, align 4
  store i32 %29, i32* %4, align 4
  br label %30

30:                                               ; preds = %47, %27
  %31 = load i32, i32* %4, align 4
  %32 = load i32, i32* %2, align 4
  %33 = icmp sle i32 %31, %32
  br i1 %33, label %34, label %50

34:                                               ; preds = %30
  %35 = load i32, i32* %4, align 4
  %36 = sext i32 %35 to i64
  %37 = getelementptr inbounds [10000 x i32], [10000 x i32]* %8, i64 0, i64 %36
  %38 = load i32, i32* %37, align 4
  %39 = load i32, i32* %6, align 4
  %40 = sext i32 %39 to i64
  %41 = getelementptr inbounds [10000 x i32], [10000 x i32]* %8, i64 0, i64 %40
  %42 = load i32, i32* %41, align 4
  %43 = icmp slt i32 %38, %42
  br i1 %43, label %44, label %46

44:                                               ; preds = %34
  %45 = load i32, i32* %4, align 4
  store i32 %45, i32* %6, align 4
  br label %46

46:                                               ; preds = %44, %34
  br label %47

47:                                               ; preds = %46
  %48 = load i32, i32* %4, align 4
  %49 = add nsw i32 %48, 1
  store i32 %49, i32* %4, align 4
  br label %30

50:                                               ; preds = %30
  %51 = load i32, i32* %6, align 4
  %52 = load i32, i32* %3, align 4
  %53 = icmp ne i32 %51, %52
  br i1 %53, label %54, label %70

54:                                               ; preds = %50
  %55 = load i32, i32* %6, align 4
  %56 = sext i32 %55 to i64
  %57 = getelementptr inbounds [10000 x i32], [10000 x i32]* %8, i64 0, i64 %56
  %58 = load i32, i32* %57, align 4
  store i32 %58, i32* %7, align 4
  %59 = load i32, i32* %3, align 4
  %60 = sext i32 %59 to i64
  %61 = getelementptr inbounds [10000 x i32], [10000 x i32]* %8, i64 0, i64 %60
  %62 = load i32, i32* %61, align 4
  %63 = load i32, i32* %6, align 4
  %64 = sext i32 %63 to i64
  %65 = getelementptr inbounds [10000 x i32], [10000 x i32]* %8, i64 0, i64 %64
  store i32 %62, i32* %65, align 4
  %66 = load i32, i32* %7, align 4
  %67 = load i32, i32* %3, align 4
  %68 = sext i32 %67 to i64
  %69 = getelementptr inbounds [10000 x i32], [10000 x i32]* %8, i64 0, i64 %68
  store i32 %66, i32* %69, align 4
  br label %70

70:                                               ; preds = %54, %50
  br label %71

71:                                               ; preds = %70
  %72 = load i32, i32* %3, align 4
  %73 = add nsw i32 %72, 1
  store i32 %73, i32* %3, align 4
  br label %23

74:                                               ; preds = %23
  store i32 0, i32* %6, align 4
  store i32 1, i32* %3, align 4
  br label %75

75:                                               ; preds = %122, %74
  %76 = load i32, i32* %3, align 4
  %77 = load i32, i32* %2, align 4
  %78 = icmp slt i32 %76, %77
  br i1 %78, label %79, label %125

79:                                               ; preds = %75
  %80 = load i32, i32* %3, align 4
  %81 = add nsw i32 %80, 1
  store i32 %81, i32* %4, align 4
  br label %82

82:                                               ; preds = %118, %79
  %83 = load i32, i32* %4, align 4
  %84 = load i32, i32* %2, align 4
  %85 = icmp sle i32 %83, %84
  br i1 %85, label %86, label %121

86:                                               ; preds = %82
  %87 = load i32, i32* %3, align 4
  %88 = sext i32 %87 to i64
  %89 = getelementptr inbounds [10000 x i32], [10000 x i32]* %8, i64 0, i64 %88
  %90 = load i32, i32* %89, align 4
  %91 = load i32, i32* %4, align 4
  %92 = sext i32 %91 to i64
  %93 = getelementptr inbounds [10000 x i32], [10000 x i32]* %8, i64 0, i64 %92
  %94 = load i32, i32* %93, align 4
  %95 = add nsw i32 %90, %94
  %96 = load i32, i32* %5, align 4
  %97 = icmp eq i32 %95, %96
  br i1 %97, label %98, label %103

98:                                               ; preds = %86
  %99 = load i32, i32* %6, align 4
  %100 = icmp eq i32 %99, 0
  br i1 %100, label %101, label %103

101:                                              ; preds = %98
  %102 = call i32 (i8*, ...) @printf(i8* getelementptr inbounds ([4 x i8], [4 x i8]* @.str.2, i64 0, i64 0))
  store i32 1, i32* %6, align 4
  br label %117

103:                                              ; preds = %98, %86
  %104 = load i32, i32* %3, align 4
  %105 = sext i32 %104 to i64
  %106 = getelementptr inbounds [10000 x i32], [10000 x i32]* %8, i64 0, i64 %105
  %107 = load i32, i32* %106, align 4
  %108 = load i32, i32* %4, align 4
  %109 = sext i32 %108 to i64
  %110 = getelementptr inbounds [10000 x i32], [10000 x i32]* %8, i64 0, i64 %109
  %111 = load i32, i32* %110, align 4
  %112 = add nsw i32 %107, %111
  %113 = load i32, i32* %5, align 4
  %114 = icmp sgt i32 %112, %113
  br i1 %114, label %115, label %116

115:                                              ; preds = %103
  br label %121

116:                                              ; preds = %103
  br label %117

117:                                              ; preds = %116, %101
  br label %118

118:                                              ; preds = %117
  %119 = load i32, i32* %4, align 4
  %120 = add nsw i32 %119, 1
  store i32 %120, i32* %4, align 4
  br label %82

121:                                              ; preds = %115, %82
  br label %122

122:                                              ; preds = %121
  %123 = load i32, i32* %3, align 4
  %124 = add nsw i32 %123, 1
  store i32 %124, i32* %3, align 4
  br label %75

125:                                              ; preds = %75
  %126 = load i32, i32* %6, align 4
  %127 = icmp eq i32 %126, 0
  br i1 %127, label %128, label %130

128:                                              ; preds = %125
  %129 = call i32 (i8*, ...) @printf(i8* getelementptr inbounds ([3 x i8], [3 x i8]* @.str.3, i64 0, i64 0))
  br label %130

130:                                              ; preds = %128, %125
  ret i32 0
}

declare dso_local i32 @__isoc99_scanf(i8*, ...) #1

declare dso_local i32 @printf(i8*, ...) #1


!llvm.module.flags = !{!0}
!llvm.ident = !{!1}

!0 = !{i32 1, !"wchar_size", i32 4}
!1 = !{!"clang version 10.0.0-4ubuntu1 "}
